target datalayout = "e-m:e-p270:32:32-p271:32:32-p272:64:64-i64:64-i128:128-f80:128-n8:16:32:64-S128"
target triple = "x86_64-pc-linux-gnu"

%class.RawRead = type { %class.Array, ptr, i64, i64, ptr }
%class.Array = type { ptr, i64, i64, i64 }

; Function Attrs: inlinehint mustprogress nounwind uwtable
define linkonce_odr noundef nonnull align 1 dereferenceable(1) ptr @_ZNK5ArrayIhEixEm(ptr noundef nonnull align 8 dereferenceable(32) %0, i64 noundef %1) #3 comdat align 2 {
  %3 = alloca ptr, align 8
  %4 = alloca i64, align 8
  store ptr %0, ptr %3, align 8, !tbaa !15
  store i64 %1, ptr %4, align 8, !tbaa !23
  %5 = load ptr, ptr %3, align 8
  %6 = getelementptr inbounds nuw %class.Array, ptr %5, i32 0, i32 0
  %7 = load ptr, ptr %6, align 8, !tbaa !20
  %8 = load i64, ptr %4, align 8, !tbaa !23
  %9 = getelementptr inbounds nuw i8, ptr %7, i64 %8
  ret ptr %9
}

; Function Attrs: mustprogress uwtable
define noundef i32 @_ZN7RawRead8GetCRC15Eb(ptr noundef nonnull align 8 dereferenceable(64) %0, i1 noundef zeroext %1) #0 align 2 {
  %3 = alloca i32, align 4
  %4 = alloca ptr, align 8
  %5 = alloca i8, align 1
  %6 = alloca i32, align 4
  store ptr %0, ptr %4, align 8, !tbaa !3
  %7 = zext i1 %1 to i8
  store i8 %7, ptr %5, align 1, !tbaa !40
  %8 = load ptr, ptr %4, align 8
  %9 = getelementptr inbounds nuw %class.RawRead, ptr %8, i32 0, i32 2
  %10 = load i64, ptr %9, align 8, !tbaa !18
  %11 = icmp ule i64 %10, 2
  br i1 %11, label %12, label %13

12:                                               ; preds = %2
  store i32 0, ptr %3, align 4
  br label %31

13:                                               ; preds = %2
  call void @llvm.lifetime.start.p0(i64 4, ptr %6) #9
  %14 = getelementptr inbounds nuw %class.RawRead, ptr %8, i32 0, i32 0
  %15 = call noundef nonnull align 1 dereferenceable(1) ptr @_ZNK5ArrayIhEixEm(ptr noundef nonnull align 8 dereferenceable(32) %14, i64 noundef 2)
  %16 = load i8, ptr %5, align 1, !tbaa !40, !range !42, !noundef !43
  %17 = trunc i8 %16 to i1
  br i1 %17, label %18, label %21

18:                                               ; preds = %13
  %19 = getelementptr inbounds nuw %class.RawRead, ptr %8, i32 0, i32 3
  %20 = load i64, ptr %19, align 8, !tbaa !17
  br label %24

21:                                               ; preds = %13
  %22 = getelementptr inbounds nuw %class.RawRead, ptr %8, i32 0, i32 2
  %23 = load i64, ptr %22, align 8, !tbaa !18
  br label %24

24:                                               ; preds = %21, %18
  %25 = phi i64 [ %20, %18 ], [ %23, %21 ]
  %26 = sub i64 %25, 2
  %27 = call noundef i32 @_Z5CRC32jPKvm(i32 noundef -1, ptr noundef %15, i64 noundef %26)
  store i32 %27, ptr %6, align 4, !tbaa !32
  %28 = load i32, ptr %6, align 4, !tbaa !32
  %29 = xor i32 %28, -1
  %30 = and i32 %29, 65535
  store i32 %30, ptr %3, align 4
  call void @llvm.lifetime.end.p0(i64 4, ptr %6) #9
  br label %31

31:                                               ; preds = %24, %12
  %32 = load i32, ptr %3, align 4
  ret i32 %32
}