; Function Attrs: mustprogress uwtable
define noundef range(i32 0, 65536) i32 @_ZN7RawRead8GetCRC15Eb(ptr noundef nonnull readonly align 8 captures(none) dereferenceable(64) %0, i1 noundef zeroext %1) local_unnamed_addr #1 align 2 {
  %3 = getelementptr inbounds nuw i8, ptr %0, i64 40
  %4 = load i64, ptr %3, align 8, !tbaa !15
  %5 = icmp ult i64 %4, 3
  br i1 %5, label %15, label %6

6:                                                ; preds = %2
  %7 = load ptr, ptr %0, align 8, !tbaa !17
  %8 = getelementptr inbounds nuw i8, ptr %7, i64 2
  %9 = getelementptr inbounds nuw i8, ptr %0, i64 48
  %.val = load i64, ptr %9, align 8
  %10 = select i1 %1, i64 %.val, i64 %4
  %11 = add i64 %10, -2
  %12 = tail call noundef i32 @_Z5CRC32jPKvm(i32 noundef -1, ptr noundef nonnull %8, i64 noundef %11)
  %13 = and i32 %12, 65535
  %14 = xor i32 %13, 65535
  br label %15

15:                                               ; preds = %2, %6
  %.0 = phi i32 [ %14, %6 ], [ 0, %2 ]
  ret i32 %.0
}